(dp1
S'output'
p2
S"<type 'exceptions.AttributeError'> 'module' object has no attribute 'isclose'"
p3
sS'layer'
p4
S'/home/ria/Desktop/web2py/applications/simpleNN/controllers/pima1.py'
p5
sS'code'
p6
S'<code object <module> at 0x7fd74cd95bb0, file "/home/ria/Desktop/web2py/applications/simpleNN/controllers/pima1.py", line 1>'
p7
sS'snapshot'
p8
(dp9
sS'traceback'
p10
S'Traceback (most recent call last):\n  File "/home/ria/Desktop/web2py/gluon/restricted.py", line 219, in restricted\n    exec(ccode, environment)\n  File "/home/ria/Desktop/web2py/applications/simpleNN/controllers/pima1.py", line 47, in <module>\n  File "/home/ria/Desktop/web2py/gluon/globals.py", line 419, in <lambda>\n    self._caller = lambda f: f()\n  File "/home/ria/Desktop/web2py/applications/simpleNN/controllers/pima1.py", line 33, in result1\n    if math.isclose(rounded[0],0.0,rel_tol=1e-5):\nAttributeError: \'module\' object has no attribute \'isclose\'\n'
p11
s.